; ModuleID = '19/504.c'
source_filename = "19/504.c"
target datalayout = "e-m:e-p270:32:32-p271:32:32-p272:64:64-i64:64-f80:128-n8:16:32:64-S128"
target triple = "x86_64-pc-linux-gnu"

@.str = private unnamed_addr constant [3 x i8] c"%s\00", align 1
@.str.1 = private unnamed_addr constant [4 x i8] c" %s\00", align 1

; Function Attrs: noinline nounwind uwtable
define dso_local i32 @main() #0 {
  %1 = alloca i32, align 4
  %2 = alloca i32, align 4
  %3 = alloca i32, align 4
  %4 = alloca i32, align 4
  %5 = alloca i32, align 4
  %6 = alloca i32, align 4
  %7 = alloca i32, align 4
  %8 = alloca [50 x [20 x i8]], align 16
  %9 = alloca [1000 x i8], align 16
  %10 = alloca [20 x i8], align 16
  %11 = alloca [20 x i8], align 16
  store i32 0, i32* %1, align 4
  store i32 0, i32* %6, align 4
  store i32 0, i32* %7, align 4
  %12 = bitcast [50 x [20 x i8]]* %8 to i8*
  call void @llvm.memset.p0i8.i64(i8* align 16 %12, i8 0, i64 1000, i1 false)
  %13 = bitcast [1000 x i8]* %9 to i8*
  call void @llvm.memset.p0i8.i64(i8* align 16 %13, i8 0, i64 1000, i1 false)
  %14 = bitcast [20 x i8]* %10 to i8*
  call void @llvm.memset.p0i8.i64(i8* align 16 %14, i8 0, i64 20, i1 false)
  %15 = bitcast [20 x i8]* %11 to i8*
  call void @llvm.memset.p0i8.i64(i8* align 16 %15, i8 0, i64 20, i1 false)
  %16 = getelementptr inbounds [1000 x i8], [1000 x i8]* %9, i64 0, i64 0
  %17 = call i32 (i8*, ...) bitcast (i32 (...)* @gets to i32 (i8*, ...)*)(i8* %16)
  %18 = getelementptr inbounds [20 x i8], [20 x i8]* %10, i64 0, i64 0
  %19 = call i32 (i8*, ...) bitcast (i32 (...)* @gets to i32 (i8*, ...)*)(i8* %18)
  %20 = getelementptr inbounds [20 x i8], [20 x i8]* %11, i64 0, i64 0
  %21 = call i32 (i8*, ...) bitcast (i32 (...)* @gets to i32 (i8*, ...)*)(i8* %20)
  %22 = getelementptr inbounds [1000 x i8], [1000 x i8]* %9, i64 0, i64 0
  %23 = call i64 @strlen(i8* %22) #5
  %24 = trunc i64 %23 to i32
  store i32 %24, i32* %2, align 4
  store i32 0, i32* %5, align 4
  br label %25

25:                                               ; preds = %60, %0
  %26 = load i32, i32* %5, align 4
  %27 = load i32, i32* %2, align 4
  %28 = icmp slt i32 %26, %27
  br i1 %28, label %29, label %63

29:                                               ; preds = %25
  %30 = load i32, i32* %5, align 4
  %31 = sext i32 %30 to i64
  %32 = getelementptr inbounds [1000 x i8], [1000 x i8]* %9, i64 0, i64 %31
  %33 = load i8, i8* %32, align 1
  %34 = sext i8 %33 to i32
  %35 = icmp ne i32 %34, 32
  br i1 %35, label %36, label %49

36:                                               ; preds = %29
  %37 = load i32, i32* %5, align 4
  %38 = sext i32 %37 to i64
  %39 = getelementptr inbounds [1000 x i8], [1000 x i8]* %9, i64 0, i64 %38
  %40 = load i8, i8* %39, align 1
  %41 = load i32, i32* %6, align 4
  %42 = sext i32 %41 to i64
  %43 = getelementptr inbounds [50 x [20 x i8]], [50 x [20 x i8]]* %8, i64 0, i64 %42
  %44 = load i32, i32* %7, align 4
  %45 = sext i32 %44 to i64
  %46 = getelementptr inbounds [20 x i8], [20 x i8]* %43, i64 0, i64 %45
  store i8 %40, i8* %46, align 1
  %47 = load i32, i32* %7, align 4
  %48 = add nsw i32 %47, 1
  store i32 %48, i32* %7, align 4
  br label %49

49:                                               ; preds = %36, %29
  %50 = load i32, i32* %5, align 4
  %51 = sext i32 %50 to i64
  %52 = getelementptr inbounds [1000 x i8], [1000 x i8]* %9, i64 0, i64 %51
  %53 = load i8, i8* %52, align 1
  %54 = sext i8 %53 to i32
  %55 = icmp eq i32 %54, 32
  br i1 %55, label %56, label %59

56:                                               ; preds = %49
  %57 = load i32, i32* %6, align 4
  %58 = add nsw i32 %57, 1
  store i32 %58, i32* %6, align 4
  store i32 0, i32* %7, align 4
  br label %59

59:                                               ; preds = %56, %49
  br label %60

60:                                               ; preds = %59
  %61 = load i32, i32* %5, align 4
  %62 = add nsw i32 %61, 1
  store i32 %62, i32* %5, align 4
  br label %25

63:                                               ; preds = %25
  %64 = load i32, i32* %6, align 4
  store i32 %64, i32* %4, align 4
  store i32 0, i32* %6, align 4
  br label %65

65:                                               ; preds = %85, %63
  %66 = load i32, i32* %6, align 4
  %67 = load i32, i32* %4, align 4
  %68 = icmp sle i32 %66, %67
  br i1 %68, label %69, label %88

69:                                               ; preds = %65
  %70 = getelementptr inbounds [20 x i8], [20 x i8]* %10, i64 0, i64 0
  %71 = load i32, i32* %6, align 4
  %72 = sext i32 %71 to i64
  %73 = getelementptr inbounds [50 x [20 x i8]], [50 x [20 x i8]]* %8, i64 0, i64 %72
  %74 = getelementptr inbounds [20 x i8], [20 x i8]* %73, i64 0, i64 0
  %75 = call i32 @strcmp(i8* %70, i8* %74) #5
  %76 = icmp eq i32 %75, 0
  br i1 %76, label %77, label %84

77:                                               ; preds = %69
  %78 = load i32, i32* %6, align 4
  %79 = sext i32 %78 to i64
  %80 = getelementptr inbounds [50 x [20 x i8]], [50 x [20 x i8]]* %8, i64 0, i64 %79
  %81 = getelementptr inbounds [20 x i8], [20 x i8]* %80, i64 0, i64 0
  %82 = getelementptr inbounds [20 x i8], [20 x i8]* %11, i64 0, i64 0
  %83 = call i8* @strcpy(i8* %81, i8* %82) #6
  br label %84

84:                                               ; preds = %77, %69
  br label %85

85:                                               ; preds = %84
  %86 = load i32, i32* %6, align 4
  %87 = add nsw i32 %86, 1
  store i32 %87, i32* %6, align 4
  br label %65

88:                                               ; preds = %65
  %89 = getelementptr inbounds [50 x [20 x i8]], [50 x [20 x i8]]* %8, i64 0, i64 0
  %90 = getelementptr inbounds [20 x i8], [20 x i8]* %89, i64 0, i64 0
  %91 = call i32 (i8*, ...) @printf(i8* getelementptr inbounds ([3 x i8], [3 x i8]* @.str, i64 0, i64 0), i8* %90)
  store i32 1, i32* %6, align 4
  br label %92

92:                                               ; preds = %102, %88
  %93 = load i32, i32* %6, align 4
  %94 = load i32, i32* %4, align 4
  %95 = icmp sle i32 %93, %94
  br i1 %95, label %96, label %105

96:                                               ; preds = %92
  %97 = load i32, i32* %6, align 4
  %98 = sext i32 %97 to i64
  %99 = getelementptr inbounds [50 x [20 x i8]], [50 x [20 x i8]]* %8, i64 0, i64 %98
  %100 = getelementptr inbounds [20 x i8], [20 x i8]* %99, i64 0, i64 0
  %101 = call i32 (i8*, ...) @printf(i8* getelementptr inbounds ([4 x i8], [4 x i8]* @.str.1, i64 0, i64 0), i8* %100)
  br label %102

102:                                              ; preds = %96
  %103 = load i32, i32* %6, align 4
  %104 = add nsw i32 %103, 1
  store i32 %104, i32* %6, align 4
  br label %92

105:                                              ; preds = %92
  ret i32 0
}

; Function Attrs: argmemonly nounwind willreturn
declare void @llvm.memset.p0i8.i64(i8* nocapture writeonly, i8, i64, i1 immarg) #1

declare dso_local i32 @gets(...) #2

; Function Attrs: nounwind readonly
declare dso_local i64 @strlen(i8*) #3

; Function Attrs: nounwind readonly
declare dso_local i32 @strcmp(i8*, i8*) #3

; Function Attrs: nounwind
declare dso_local i8* @strcpy(i8*, i8*) #4

declare dso_local i32 @printf(i8*, ...) #2


!llvm.module.flags = !{!0}
!llvm.ident = !{!1}

!0 = !{i32 1, !"wchar_size", i32 4}
!1 = !{!"clang version 10.0.0-4ubuntu1 "}
